target datalayout = "e-m:e-p270:32:32-p271:32:32-p272:64:64-i64:64-i128:128-f80:128-n8:16:32:64-S128"
target triple = "x86_64-unknown-linux-gnu"

%struct.UText = type { i32, i32, i32, i32, i64, i32, i32, i64, i32, i32, ptr, ptr, ptr, ptr, ptr, ptr, ptr, ptr, i64, i32, i32, i64, i32, i32 }

; Function Attrs: mustprogress nounwind uwtable
define signext i8 @utext_isWritable_75(ptr noundef %ut) #1 {
entry:
  %ut.addr = alloca ptr, align 8
  %b = alloca i8, align 1
  store ptr %ut, ptr %ut.addr, align 8
  %0 = load ptr, ptr %ut.addr, align 8
  %providerProperties = getelementptr inbounds %struct.UText, ptr %0, i32 0, i32 2
  %1 = load i32, ptr %providerProperties, align 8
  %and = and i32 %1, 8
  %cmp = icmp ne i32 %and, 0
  %conv = zext i1 %cmp to i8
  store i8 %conv, ptr %b, align 1
  %2 = load i8, ptr %b, align 1
  ret i8 %2
}