; Function Attrs: mustprogress nofree norecurse nosync nounwind willreturn memory(argmem: read) uwtable
define signext i8 @utext_isWritable_75(ptr nocapture noundef readonly %ut) local_unnamed_addr #1 {
entry:
  %providerProperties = getelementptr inbounds i8, ptr %ut, i64 8
  %0 = load i32, ptr %providerProperties, align 8
  %1 = trunc i32 %0 to i8
  %2 = lshr i8 %1, 3
  %conv = and i8 %2, 1
  ret i8 %conv
}